(lp0
S'\n  +---+\n  |   |\n      |\n      |\n      |\n      |\n========='
p1
aS'\n  +---+\n  |   |\n  O   |\n      |\n      |\n      |\n========='
p2
aS'\n  +---+\n  |   |\n  O   |\n  |   |\n      |\n      |\n========='
p3
aS'\n  +---+\n  |   |\n  O   |\n /|   |\n      |\n      |\n========='
p4
aS'\n  +---+\n  |   |\n  O   |\n /|\\  |\n      |\n      |\n========='
p5
aS'\n  +---+\n  |   |\n  O   |\n /|\\  |\n /    |\n      |\n========='
p6
aS'\n  +---+\n  |   |\n  O   |\n /|\\  |\n / \\  |\n      |\n========='
p7
a.